ARM GAS  C:\Users\lucdd\AppData\Local\Temp\ccaK19sf.s 			page 1


   1              		.syntax unified
   2              		.cpu cortex-m3
   3              		.fpu softvfp
   4              		.eabi_attribute 20, 1
   5              		.eabi_attribute 21, 1
   6              		.eabi_attribute 23, 3
   7              		.eabi_attribute 24, 1
   8              		.eabi_attribute 25, 1
   9              		.eabi_attribute 26, 1
  10              		.eabi_attribute 30, 1
  11              		.eabi_attribute 34, 1
  12              		.eabi_attribute 18, 4
  13              		.thumb
  14              		.syntax unified
  15              		.file	"I2C_PM.c"
  16              		.text
  17              	.Ltext0:
  18              		.cfi_sections	.debug_frame
  19              		.section	.text.I2C_SaveConfig,"ax",%progbits
  20              		.align	2
  21              		.global	I2C_SaveConfig
  22              		.thumb
  23              		.thumb_func
  24              		.type	I2C_SaveConfig, %function
  25              	I2C_SaveConfig:
  26              	.LFB0:
  27              		.file 1 "Generated_Source\\PSoC5\\I2C_PM.c"
   1:Generated_Source\PSoC5/I2C_PM.c **** /*******************************************************************************
   2:Generated_Source\PSoC5/I2C_PM.c **** * File Name: I2C_PM.c
   3:Generated_Source\PSoC5/I2C_PM.c **** * Version 2.0
   4:Generated_Source\PSoC5/I2C_PM.c **** *
   5:Generated_Source\PSoC5/I2C_PM.c **** * Description:
   6:Generated_Source\PSoC5/I2C_PM.c **** *  This file contains the API for the proper switching to/from the low power
   7:Generated_Source\PSoC5/I2C_PM.c **** *  modes.
   8:Generated_Source\PSoC5/I2C_PM.c **** *
   9:Generated_Source\PSoC5/I2C_PM.c **** ********************************************************************************
  10:Generated_Source\PSoC5/I2C_PM.c **** * Copyright 2008-2015, Cypress Semiconductor Corporation.  All rights reserved.
  11:Generated_Source\PSoC5/I2C_PM.c **** * You may use this file only in accordance with the license, terms, conditions,
  12:Generated_Source\PSoC5/I2C_PM.c **** * disclaimers, and limitations in the end user license agreement accompanying
  13:Generated_Source\PSoC5/I2C_PM.c **** * the software package with which this file was provided.
  14:Generated_Source\PSoC5/I2C_PM.c **** *******************************************************************************/
  15:Generated_Source\PSoC5/I2C_PM.c **** 
  16:Generated_Source\PSoC5/I2C_PM.c **** #include "I2C_PVT.h"
  17:Generated_Source\PSoC5/I2C_PM.c **** 
  18:Generated_Source\PSoC5/I2C_PM.c **** I2C_BACKUP_STRUCT I2C_backup =
  19:Generated_Source\PSoC5/I2C_PM.c **** {
  20:Generated_Source\PSoC5/I2C_PM.c ****     I2C_DISABLED,
  21:Generated_Source\PSoC5/I2C_PM.c ****     I2C_DEFAULT_XCFG,
  22:Generated_Source\PSoC5/I2C_PM.c ****     I2C_DEFAULT_ADDR,
  23:Generated_Source\PSoC5/I2C_PM.c ****     I2C_DEFAULT_CFG,
  24:Generated_Source\PSoC5/I2C_PM.c ****     I2C_DEFAULT_CLKDIV1,
  25:Generated_Source\PSoC5/I2C_PM.c ****     I2C_DEFAULT_CLKDIV2
  26:Generated_Source\PSoC5/I2C_PM.c **** };
  27:Generated_Source\PSoC5/I2C_PM.c **** 
  28:Generated_Source\PSoC5/I2C_PM.c **** #if (I2C_WAKEUP_ENABLED)
  29:Generated_Source\PSoC5/I2C_PM.c ****     volatile uint8 I2C_wakeupSource;
  30:Generated_Source\PSoC5/I2C_PM.c **** #endif /* (I2C_WAKEUP_ENABLED) */
ARM GAS  C:\Users\lucdd\AppData\Local\Temp\ccaK19sf.s 			page 2


  31:Generated_Source\PSoC5/I2C_PM.c **** 
  32:Generated_Source\PSoC5/I2C_PM.c **** 
  33:Generated_Source\PSoC5/I2C_PM.c **** /*******************************************************************************
  34:Generated_Source\PSoC5/I2C_PM.c **** * Function Name: I2C_SaveConfig
  35:Generated_Source\PSoC5/I2C_PM.c **** ********************************************************************************
  36:Generated_Source\PSoC5/I2C_PM.c **** *
  37:Generated_Source\PSoC5/I2C_PM.c **** * Summary:
  38:Generated_Source\PSoC5/I2C_PM.c **** *  The Enable wakeup from Sleep Mode selection influences this function
  39:Generated_Source\PSoC5/I2C_PM.c **** *  implementation:
  40:Generated_Source\PSoC5/I2C_PM.c **** *   Unchecked: Stores the component non-retention configuration registers.
  41:Generated_Source\PSoC5/I2C_PM.c **** *   Checked:   Enables backup regulator of the I2C hardware. If a transaction
  42:Generated_Source\PSoC5/I2C_PM.c **** *              intended for component executes during this function call,
  43:Generated_Source\PSoC5/I2C_PM.c **** *              it waits until the current transaction is completed and
  44:Generated_Source\PSoC5/I2C_PM.c **** *              I2C hardware is ready to go to sleep mode. All subsequent
  45:Generated_Source\PSoC5/I2C_PM.c **** *              I2C traffic is NAKed until the device is put to sleep mode.
  46:Generated_Source\PSoC5/I2C_PM.c **** *
  47:Generated_Source\PSoC5/I2C_PM.c **** * Parameters:
  48:Generated_Source\PSoC5/I2C_PM.c **** *  None.
  49:Generated_Source\PSoC5/I2C_PM.c **** *
  50:Generated_Source\PSoC5/I2C_PM.c **** * Return:
  51:Generated_Source\PSoC5/I2C_PM.c **** *  None.
  52:Generated_Source\PSoC5/I2C_PM.c **** *
  53:Generated_Source\PSoC5/I2C_PM.c **** * Global variables:
  54:Generated_Source\PSoC5/I2C_PM.c **** *  I2C_backup - The non-retention registers are saved to.
  55:Generated_Source\PSoC5/I2C_PM.c **** *
  56:Generated_Source\PSoC5/I2C_PM.c **** * Reentrant:
  57:Generated_Source\PSoC5/I2C_PM.c **** *  No.
  58:Generated_Source\PSoC5/I2C_PM.c **** *
  59:Generated_Source\PSoC5/I2C_PM.c **** *******************************************************************************/
  60:Generated_Source\PSoC5/I2C_PM.c **** void I2C_SaveConfig(void) 
  61:Generated_Source\PSoC5/I2C_PM.c **** {
  28              		.loc 1 61 0
  29              		.cfi_startproc
  30              		@ args = 0, pretend = 0, frame = 0
  31              		@ frame_needed = 0, uses_anonymous_args = 0
  32              		@ link register save eliminated.
  62:Generated_Source\PSoC5/I2C_PM.c **** #if (I2C_WAKEUP_ENABLED)
  63:Generated_Source\PSoC5/I2C_PM.c ****     uint8 interruptState;
  64:Generated_Source\PSoC5/I2C_PM.c **** #endif /* (I2C_WAKEUP_ENABLED) */
  65:Generated_Source\PSoC5/I2C_PM.c **** 
  66:Generated_Source\PSoC5/I2C_PM.c ****     /* Store component configuration into backup structure */
  67:Generated_Source\PSoC5/I2C_PM.c ****     I2C_backup.cfg     = I2C_CFG_REG;
  33              		.loc 1 67 0
  34 0000 084B     		ldr	r3, .L2
  35 0002 1A78     		ldrb	r2, [r3]	@ zero_extendqisi2
  36 0004 084B     		ldr	r3, .L2+4
  37 0006 DA70     		strb	r2, [r3, #3]
  68:Generated_Source\PSoC5/I2C_PM.c ****     I2C_backup.xcfg    = I2C_XCFG_REG;
  38              		.loc 1 68 0
  39 0008 084A     		ldr	r2, .L2+8
  40 000a 1278     		ldrb	r2, [r2]	@ zero_extendqisi2
  41 000c 5A70     		strb	r2, [r3, #1]
  69:Generated_Source\PSoC5/I2C_PM.c ****     I2C_backup.adr     = I2C_ADDR_REG;
  42              		.loc 1 69 0
  43 000e 084A     		ldr	r2, .L2+12
  44 0010 1278     		ldrb	r2, [r2]	@ zero_extendqisi2
  45 0012 9A70     		strb	r2, [r3, #2]
ARM GAS  C:\Users\lucdd\AppData\Local\Temp\ccaK19sf.s 			page 3


  70:Generated_Source\PSoC5/I2C_PM.c ****     I2C_backup.clkDiv1 = I2C_CLKDIV1_REG;
  46              		.loc 1 70 0
  47 0014 074A     		ldr	r2, .L2+16
  48 0016 1278     		ldrb	r2, [r2]	@ zero_extendqisi2
  49 0018 1A71     		strb	r2, [r3, #4]
  71:Generated_Source\PSoC5/I2C_PM.c ****     I2C_backup.clkDiv2 = I2C_CLKDIV2_REG;
  50              		.loc 1 71 0
  51 001a 074A     		ldr	r2, .L2+20
  52 001c 1278     		ldrb	r2, [r2]	@ zero_extendqisi2
  53 001e 5A71     		strb	r2, [r3, #5]
  54 0020 7047     		bx	lr
  55              	.L3:
  56 0022 00BF     		.align	2
  57              	.L2:
  58 0024 D6490040 		.word	1073760726
  59 0028 00000000 		.word	.LANCHOR0
  60 002c C8490040 		.word	1073760712
  61 0030 CA490040 		.word	1073760714
  62 0034 DB490040 		.word	1073760731
  63 0038 DC490040 		.word	1073760732
  64              		.cfi_endproc
  65              	.LFE0:
  66              		.size	I2C_SaveConfig, .-I2C_SaveConfig
  67              		.section	.text.I2C_RestoreConfig,"ax",%progbits
  68              		.align	2
  69              		.global	I2C_RestoreConfig
  70              		.thumb
  71              		.thumb_func
  72              		.type	I2C_RestoreConfig, %function
  73              	I2C_RestoreConfig:
  74              	.LFB1:
  72:Generated_Source\PSoC5/I2C_PM.c **** 
  73:Generated_Source\PSoC5/I2C_PM.c **** #if (I2C_WAKEUP_ENABLED)
  74:Generated_Source\PSoC5/I2C_PM.c ****     /* Enable I2C backup regulator */
  75:Generated_Source\PSoC5/I2C_PM.c ****     interruptState = CyEnterCriticalSection();
  76:Generated_Source\PSoC5/I2C_PM.c ****     I2C_PWRSYS_CR1_REG |= I2C_PWRSYS_CR1_I2C_BACKUP;
  77:Generated_Source\PSoC5/I2C_PM.c ****     CyExitCriticalSection(interruptState);
  78:Generated_Source\PSoC5/I2C_PM.c **** 
  79:Generated_Source\PSoC5/I2C_PM.c ****     /* Wait for completion of the current transaction. The following
  80:Generated_Source\PSoC5/I2C_PM.c ****     * transactions have to be NACKed until the device enters the low power mode.
  81:Generated_Source\PSoC5/I2C_PM.c ****     * After a wakeup, the force NACK bit is cleared automatically.
  82:Generated_Source\PSoC5/I2C_PM.c ****     */
  83:Generated_Source\PSoC5/I2C_PM.c ****     I2C_XCFG_REG |= I2C_XCFG_FORCE_NACK;
  84:Generated_Source\PSoC5/I2C_PM.c ****     while (0u == (I2C_XCFG_REG & I2C_XCFG_SLEEP_READY))
  85:Generated_Source\PSoC5/I2C_PM.c ****     {
  86:Generated_Source\PSoC5/I2C_PM.c ****     }
  87:Generated_Source\PSoC5/I2C_PM.c **** 
  88:Generated_Source\PSoC5/I2C_PM.c ****      /* Setup wakeup interrupt */
  89:Generated_Source\PSoC5/I2C_PM.c ****     I2C_DisableInt();
  90:Generated_Source\PSoC5/I2C_PM.c ****     I2C_wakeupSource = 0u; /* Clear wakeup event */
  91:Generated_Source\PSoC5/I2C_PM.c ****     (void) CyIntSetVector(I2C_ISR_NUMBER, &I2C_WAKEUP_ISR);
  92:Generated_Source\PSoC5/I2C_PM.c ****     I2C_EnableInt();
  93:Generated_Source\PSoC5/I2C_PM.c **** #endif /* (I2C_WAKEUP_ENABLED) */
  94:Generated_Source\PSoC5/I2C_PM.c **** }
  95:Generated_Source\PSoC5/I2C_PM.c **** 
  96:Generated_Source\PSoC5/I2C_PM.c **** 
  97:Generated_Source\PSoC5/I2C_PM.c **** /*******************************************************************************
ARM GAS  C:\Users\lucdd\AppData\Local\Temp\ccaK19sf.s 			page 4


  98:Generated_Source\PSoC5/I2C_PM.c **** * Function Name: I2C_RestoreConfig
  99:Generated_Source\PSoC5/I2C_PM.c **** ********************************************************************************
 100:Generated_Source\PSoC5/I2C_PM.c **** *
 101:Generated_Source\PSoC5/I2C_PM.c **** * Summary:
 102:Generated_Source\PSoC5/I2C_PM.c **** *  The Enable wakeup from Sleep Mode selection influences this function
 103:Generated_Source\PSoC5/I2C_PM.c **** *  implementation:
 104:Generated_Source\PSoC5/I2C_PM.c **** *   Unchecked: Restores the component non-retention configuration registers
 105:Generated_Source\PSoC5/I2C_PM.c **** *              to the state they were in before I2C_Sleep() or I2C_SaveConfig()
 106:Generated_Source\PSoC5/I2C_PM.c **** *              was called.
 107:Generated_Source\PSoC5/I2C_PM.c **** *   Checked:   Disables the backup regulator of the I2C hardware. Sets up the
 108:Generated_Source\PSoC5/I2C_PM.c **** *              regular component interrupt handler and generates the component
 109:Generated_Source\PSoC5/I2C_PM.c **** *              interrupt if it was wake up source to release the bus and
 110:Generated_Source\PSoC5/I2C_PM.c **** *              continue in-coming I2C transaction.
 111:Generated_Source\PSoC5/I2C_PM.c **** *
 112:Generated_Source\PSoC5/I2C_PM.c **** * Parameters:
 113:Generated_Source\PSoC5/I2C_PM.c **** *  None.
 114:Generated_Source\PSoC5/I2C_PM.c **** *
 115:Generated_Source\PSoC5/I2C_PM.c **** * Return:
 116:Generated_Source\PSoC5/I2C_PM.c **** *  None.
 117:Generated_Source\PSoC5/I2C_PM.c **** *
 118:Generated_Source\PSoC5/I2C_PM.c **** * Global variables:
 119:Generated_Source\PSoC5/I2C_PM.c **** *  I2C_backup - the non-retention registers are restored from.
 120:Generated_Source\PSoC5/I2C_PM.c **** *
 121:Generated_Source\PSoC5/I2C_PM.c **** * Reentrant:
 122:Generated_Source\PSoC5/I2C_PM.c **** *  No.
 123:Generated_Source\PSoC5/I2C_PM.c **** *
 124:Generated_Source\PSoC5/I2C_PM.c **** * Side Effects:
 125:Generated_Source\PSoC5/I2C_PM.c **** *  Calling this function before I2C_SaveConfig() or
 126:Generated_Source\PSoC5/I2C_PM.c **** *  I2C_Sleep() may produce unexpected behavior.
 127:Generated_Source\PSoC5/I2C_PM.c **** *
 128:Generated_Source\PSoC5/I2C_PM.c **** *******************************************************************************/
 129:Generated_Source\PSoC5/I2C_PM.c **** void I2C_RestoreConfig(void) 
 130:Generated_Source\PSoC5/I2C_PM.c **** {
  75              		.loc 1 130 0
  76              		.cfi_startproc
  77              		@ args = 0, pretend = 0, frame = 0
  78              		@ frame_needed = 0, uses_anonymous_args = 0
  79 0000 08B5     		push	{r3, lr}
  80              		.cfi_def_cfa_offset 8
  81              		.cfi_offset 3, -8
  82              		.cfi_offset 14, -4
 131:Generated_Source\PSoC5/I2C_PM.c ****     uint8 intState;
 132:Generated_Source\PSoC5/I2C_PM.c **** 
 133:Generated_Source\PSoC5/I2C_PM.c ****     if (0u != (I2C_PWRSYS_CR1_I2C_BACKUP & I2C_PWRSYS_CR1_REG))
  83              		.loc 1 133 0
  84 0002 104B     		ldr	r3, .L8
  85 0004 1B78     		ldrb	r3, [r3]	@ zero_extendqisi2
  86 0006 13F0040F 		tst	r3, #4
  87 000a 09D0     		beq	.L5
 134:Generated_Source\PSoC5/I2C_PM.c ****     /* Exit from Sleep */
 135:Generated_Source\PSoC5/I2C_PM.c ****     {
 136:Generated_Source\PSoC5/I2C_PM.c ****         /* Disable I2C backup regulator */
 137:Generated_Source\PSoC5/I2C_PM.c ****         intState = CyEnterCriticalSection();
  88              		.loc 1 137 0
  89 000c FFF7FEFF 		bl	CyEnterCriticalSection
  90              	.LVL0:
 138:Generated_Source\PSoC5/I2C_PM.c ****         I2C_PWRSYS_CR1_REG &= (uint8) ~I2C_PWRSYS_CR1_I2C_BACKUP;
ARM GAS  C:\Users\lucdd\AppData\Local\Temp\ccaK19sf.s 			page 5


  91              		.loc 1 138 0
  92 0010 0C4A     		ldr	r2, .L8
  93 0012 1378     		ldrb	r3, [r2]	@ zero_extendqisi2
  94 0014 03F0FB03 		and	r3, r3, #251
  95 0018 1370     		strb	r3, [r2]
 139:Generated_Source\PSoC5/I2C_PM.c ****         CyExitCriticalSection(intState);
  96              		.loc 1 139 0
  97 001a FFF7FEFF 		bl	CyExitCriticalSection
  98              	.LVL1:
  99 001e 08BD     		pop	{r3, pc}
 100              	.L5:
 140:Generated_Source\PSoC5/I2C_PM.c ****     }
 141:Generated_Source\PSoC5/I2C_PM.c ****     else /* Exit from Hibernate (bit is cleared) or wakeup disabled */
 142:Generated_Source\PSoC5/I2C_PM.c ****     {
 143:Generated_Source\PSoC5/I2C_PM.c ****     #if (I2C_WAKEUP_ENABLED)
 144:Generated_Source\PSoC5/I2C_PM.c ****         /* Disable power to I2C block before register restore */
 145:Generated_Source\PSoC5/I2C_PM.c ****         intState = CyEnterCriticalSection();
 146:Generated_Source\PSoC5/I2C_PM.c ****         I2C_PM_ACT_CFG_REG  &= (uint8) ~I2C_ACT_PWR_EN;
 147:Generated_Source\PSoC5/I2C_PM.c ****         I2C_PM_STBY_CFG_REG &= (uint8) ~I2C_STBY_PWR_EN;
 148:Generated_Source\PSoC5/I2C_PM.c ****         CyExitCriticalSection(intState);
 149:Generated_Source\PSoC5/I2C_PM.c **** 
 150:Generated_Source\PSoC5/I2C_PM.c ****         /* Enable component after restore complete */
 151:Generated_Source\PSoC5/I2C_PM.c ****         I2C_backup.enableState = I2C_ENABLED;
 152:Generated_Source\PSoC5/I2C_PM.c ****     #endif /* (I2C_WAKEUP_ENABLED) */
 153:Generated_Source\PSoC5/I2C_PM.c **** 
 154:Generated_Source\PSoC5/I2C_PM.c ****         /* Restore component registers: Hibernate disable power */
 155:Generated_Source\PSoC5/I2C_PM.c ****         I2C_CFG_REG     = I2C_backup.cfg;
 101              		.loc 1 155 0
 102 0020 094B     		ldr	r3, .L8+4
 103 0022 D978     		ldrb	r1, [r3, #3]	@ zero_extendqisi2
 104 0024 094A     		ldr	r2, .L8+8
 105 0026 1170     		strb	r1, [r2]
 156:Generated_Source\PSoC5/I2C_PM.c ****         I2C_XCFG_REG    = I2C_backup.xcfg;
 106              		.loc 1 156 0
 107 0028 5978     		ldrb	r1, [r3, #1]	@ zero_extendqisi2
 108 002a 0E3A     		subs	r2, r2, #14
 109 002c 1170     		strb	r1, [r2]
 157:Generated_Source\PSoC5/I2C_PM.c ****         I2C_ADDR_REG    = I2C_backup.adr;
 110              		.loc 1 157 0
 111 002e 9978     		ldrb	r1, [r3, #2]	@ zero_extendqisi2
 112 0030 0232     		adds	r2, r2, #2
 113 0032 1170     		strb	r1, [r2]
 158:Generated_Source\PSoC5/I2C_PM.c ****         I2C_CLKDIV1_REG = I2C_backup.clkDiv1;
 114              		.loc 1 158 0
 115 0034 1979     		ldrb	r1, [r3, #4]	@ zero_extendqisi2
 116 0036 1132     		adds	r2, r2, #17
 117 0038 1170     		strb	r1, [r2]
 159:Generated_Source\PSoC5/I2C_PM.c ****         I2C_CLKDIV2_REG = I2C_backup.clkDiv2;
 118              		.loc 1 159 0
 119 003a 5A79     		ldrb	r2, [r3, #5]	@ zero_extendqisi2
 120 003c 044B     		ldr	r3, .L8+12
 121 003e 1A70     		strb	r2, [r3]
 122 0040 08BD     		pop	{r3, pc}
 123              	.L9:
 124 0042 00BF     		.align	2
 125              	.L8:
 126 0044 31430040 		.word	1073759025
ARM GAS  C:\Users\lucdd\AppData\Local\Temp\ccaK19sf.s 			page 6


 127 0048 00000000 		.word	.LANCHOR0
 128 004c D6490040 		.word	1073760726
 129 0050 DC490040 		.word	1073760732
 130              		.cfi_endproc
 131              	.LFE1:
 132              		.size	I2C_RestoreConfig, .-I2C_RestoreConfig
 133              		.section	.text.I2C_Sleep,"ax",%progbits
 134              		.align	2
 135              		.global	I2C_Sleep
 136              		.thumb
 137              		.thumb_func
 138              		.type	I2C_Sleep, %function
 139              	I2C_Sleep:
 140              	.LFB2:
 160:Generated_Source\PSoC5/I2C_PM.c ****     }
 161:Generated_Source\PSoC5/I2C_PM.c **** 
 162:Generated_Source\PSoC5/I2C_PM.c **** #if (I2C_WAKEUP_ENABLED)
 163:Generated_Source\PSoC5/I2C_PM.c ****     /* Set I2C interrupt to be pending if component is source of wake up */
 164:Generated_Source\PSoC5/I2C_PM.c ****     I2C_DisableInt();
 165:Generated_Source\PSoC5/I2C_PM.c ****     (void) CyIntSetVector(I2C_ISR_NUMBER, &I2C_ISR);
 166:Generated_Source\PSoC5/I2C_PM.c ****     if (0u != I2C_wakeupSource)
 167:Generated_Source\PSoC5/I2C_PM.c ****     {
 168:Generated_Source\PSoC5/I2C_PM.c ****         /* Generate interrupt to release I2C bus */
 169:Generated_Source\PSoC5/I2C_PM.c ****         (void) CyIntSetPending(I2C_ISR_NUMBER);
 170:Generated_Source\PSoC5/I2C_PM.c ****     }
 171:Generated_Source\PSoC5/I2C_PM.c ****     I2C_EnableInt();
 172:Generated_Source\PSoC5/I2C_PM.c **** #endif /* (I2C_WAKEUP_ENABLED) */
 173:Generated_Source\PSoC5/I2C_PM.c **** }
 174:Generated_Source\PSoC5/I2C_PM.c **** 
 175:Generated_Source\PSoC5/I2C_PM.c **** 
 176:Generated_Source\PSoC5/I2C_PM.c **** /*******************************************************************************
 177:Generated_Source\PSoC5/I2C_PM.c **** * Function Name: I2C_Sleep
 178:Generated_Source\PSoC5/I2C_PM.c **** ********************************************************************************
 179:Generated_Source\PSoC5/I2C_PM.c **** *
 180:Generated_Source\PSoC5/I2C_PM.c **** * Summary:
 181:Generated_Source\PSoC5/I2C_PM.c **** *  This is the preferred method to prepare the component before device enters
 182:Generated_Source\PSoC5/I2C_PM.c **** *  sleep mode.
 183:Generated_Source\PSoC5/I2C_PM.c **** *  The Enable wakeup from Sleep Mode selection influences this function
 184:Generated_Source\PSoC5/I2C_PM.c **** *  implementation:
 185:Generated_Source\PSoC5/I2C_PM.c **** *   Unchecked: Checks current EZI2C component state, saves it, and disables the
 186:Generated_Source\PSoC5/I2C_PM.c **** *              component by calling EZI2C_Stop() if it is currently enabled.
 187:Generated_Source\PSoC5/I2C_PM.c **** *              EZI2C_SaveConfig() is then called to save the component
 188:Generated_Source\PSoC5/I2C_PM.c **** *              non-retention configuration registers.
 189:Generated_Source\PSoC5/I2C_PM.c **** *   Checked:   If a transaction intended for component is in progress during
 190:Generated_Source\PSoC5/I2C_PM.c **** *              this function call, it waits until the current transaction is
 191:Generated_Source\PSoC5/I2C_PM.c **** *              completed. All subsequent I2C traffic intended for component is
 192:Generated_Source\PSoC5/I2C_PM.c **** *              NAKed until the device is put to sleep mode. The address match
 193:Generated_Source\PSoC5/I2C_PM.c **** *              event wakes up the device.
 194:Generated_Source\PSoC5/I2C_PM.c **** *
 195:Generated_Source\PSoC5/I2C_PM.c **** *  Call the EZI2C_Sleep() function before calling the CyPmSleep() or the
 196:Generated_Source\PSoC5/I2C_PM.c **** *  CyPmHibernate() function. Refer to the PSoC Creator System Reference Guide
 197:Generated_Source\PSoC5/I2C_PM.c **** *  for more information about power-management functions.
 198:Generated_Source\PSoC5/I2C_PM.c **** *
 199:Generated_Source\PSoC5/I2C_PM.c **** * Parameters:
 200:Generated_Source\PSoC5/I2C_PM.c **** *  None.
 201:Generated_Source\PSoC5/I2C_PM.c **** *
 202:Generated_Source\PSoC5/I2C_PM.c **** * Return:
ARM GAS  C:\Users\lucdd\AppData\Local\Temp\ccaK19sf.s 			page 7


 203:Generated_Source\PSoC5/I2C_PM.c **** *  None.
 204:Generated_Source\PSoC5/I2C_PM.c **** *
 205:Generated_Source\PSoC5/I2C_PM.c **** * Global variables:
 206:Generated_Source\PSoC5/I2C_PM.c **** *  I2C_backup - The non retention registers are saved to. Changed
 207:Generated_Source\PSoC5/I2C_PM.c **** *  by I2C_SaveConfig() function call.
 208:Generated_Source\PSoC5/I2C_PM.c **** *
 209:Generated_Source\PSoC5/I2C_PM.c **** * Reentrant:
 210:Generated_Source\PSoC5/I2C_PM.c **** *  No.
 211:Generated_Source\PSoC5/I2C_PM.c **** *
 212:Generated_Source\PSoC5/I2C_PM.c **** *******************************************************************************/
 213:Generated_Source\PSoC5/I2C_PM.c **** void I2C_Sleep(void) 
 214:Generated_Source\PSoC5/I2C_PM.c **** {
 141              		.loc 1 214 0
 142              		.cfi_startproc
 143              		@ args = 0, pretend = 0, frame = 0
 144              		@ frame_needed = 0, uses_anonymous_args = 0
 145 0000 08B5     		push	{r3, lr}
 146              		.cfi_def_cfa_offset 8
 147              		.cfi_offset 3, -8
 148              		.cfi_offset 14, -4
 215:Generated_Source\PSoC5/I2C_PM.c **** #if (I2C_WAKEUP_ENABLED)
 216:Generated_Source\PSoC5/I2C_PM.c ****     /* Do not re-enable component in I2C_Wakeup(). It remains enabled as it is wakeup source */
 217:Generated_Source\PSoC5/I2C_PM.c ****     I2C_backup.enableState = I2C_DISABLED;
 218:Generated_Source\PSoC5/I2C_PM.c **** #else
 219:Generated_Source\PSoC5/I2C_PM.c ****     /* Store component state enabled or disable to restore after wakeup */
 220:Generated_Source\PSoC5/I2C_PM.c ****     I2C_backup.enableState = (I2C_PM_ACT_CFG_REG & I2C_ACT_PWR_EN);
 149              		.loc 1 220 0
 150 0002 064B     		ldr	r3, .L13
 151 0004 1B78     		ldrb	r3, [r3]	@ zero_extendqisi2
 152 0006 03F00403 		and	r3, r3, #4
 153 000a DBB2     		uxtb	r3, r3
 154 000c 044A     		ldr	r2, .L13+4
 155 000e 1370     		strb	r3, [r2]
 221:Generated_Source\PSoC5/I2C_PM.c **** 
 222:Generated_Source\PSoC5/I2C_PM.c ****     if (0u != I2C_backup.enableState)
 156              		.loc 1 222 0
 157 0010 0BB1     		cbz	r3, .L11
 223:Generated_Source\PSoC5/I2C_PM.c ****     {
 224:Generated_Source\PSoC5/I2C_PM.c ****         /* Disable component before enter Sleep */
 225:Generated_Source\PSoC5/I2C_PM.c ****         I2C_Stop();
 158              		.loc 1 225 0
 159 0012 FFF7FEFF 		bl	I2C_Stop
 160              	.LVL2:
 161              	.L11:
 226:Generated_Source\PSoC5/I2C_PM.c ****     }
 227:Generated_Source\PSoC5/I2C_PM.c **** #endif /* (I2C_WAKEUP_ENABLED) */
 228:Generated_Source\PSoC5/I2C_PM.c **** 
 229:Generated_Source\PSoC5/I2C_PM.c ****     I2C_SaveConfig();
 162              		.loc 1 229 0
 163 0016 FFF7FEFF 		bl	I2C_SaveConfig
 164              	.LVL3:
 165 001a 08BD     		pop	{r3, pc}
 166              	.L14:
 167              		.align	2
 168              	.L13:
 169 001c A5430040 		.word	1073759141
 170 0020 00000000 		.word	.LANCHOR0
ARM GAS  C:\Users\lucdd\AppData\Local\Temp\ccaK19sf.s 			page 8


 171              		.cfi_endproc
 172              	.LFE2:
 173              		.size	I2C_Sleep, .-I2C_Sleep
 174              		.section	.text.I2C_Wakeup,"ax",%progbits
 175              		.align	2
 176              		.global	I2C_Wakeup
 177              		.thumb
 178              		.thumb_func
 179              		.type	I2C_Wakeup, %function
 180              	I2C_Wakeup:
 181              	.LFB3:
 230:Generated_Source\PSoC5/I2C_PM.c **** }
 231:Generated_Source\PSoC5/I2C_PM.c **** 
 232:Generated_Source\PSoC5/I2C_PM.c **** 
 233:Generated_Source\PSoC5/I2C_PM.c **** /*******************************************************************************
 234:Generated_Source\PSoC5/I2C_PM.c **** * Function Name: I2C_Wakeup
 235:Generated_Source\PSoC5/I2C_PM.c **** ********************************************************************************
 236:Generated_Source\PSoC5/I2C_PM.c **** *
 237:Generated_Source\PSoC5/I2C_PM.c **** * Summary:
 238:Generated_Source\PSoC5/I2C_PM.c **** *  This is the preferred method to prepare the component for active mode
 239:Generated_Source\PSoC5/I2C_PM.c **** *  operation (when device exits sleep mode).
 240:Generated_Source\PSoC5/I2C_PM.c **** *  The Enable wakeup from Sleep Mode selection influences this function
 241:Generated_Source\PSoC5/I2C_PM.c **** *  implementation:
 242:Generated_Source\PSoC5/I2C_PM.c **** *   Unchecked: Restores the component non-retention configuration registers
 243:Generated_Source\PSoC5/I2C_PM.c **** *              by calling EZI2C_RestoreConfig(). If the component was enabled
 244:Generated_Source\PSoC5/I2C_PM.c **** *              before the EZI2C_Sleep() function was called, EZI2C_Wakeup()
 245:Generated_Source\PSoC5/I2C_PM.c **** *              re-enables it.
 246:Generated_Source\PSoC5/I2C_PM.c **** *   Checked:   Disables the backup regulator of I2C hardware. The incoming
 247:Generated_Source\PSoC5/I2C_PM.c **** *              transaction continues as soon as the regular EZI2C interrupt
 248:Generated_Source\PSoC5/I2C_PM.c **** *              handler is set up (global interrupts has to be  enabled to
 249:Generated_Source\PSoC5/I2C_PM.c **** *              service EZI2C component interrupt).
 250:Generated_Source\PSoC5/I2C_PM.c **** *
 251:Generated_Source\PSoC5/I2C_PM.c **** * Parameters:
 252:Generated_Source\PSoC5/I2C_PM.c **** *  None.
 253:Generated_Source\PSoC5/I2C_PM.c **** *
 254:Generated_Source\PSoC5/I2C_PM.c **** * Return:
 255:Generated_Source\PSoC5/I2C_PM.c **** *  None.
 256:Generated_Source\PSoC5/I2C_PM.c **** *
 257:Generated_Source\PSoC5/I2C_PM.c **** * Global variables:
 258:Generated_Source\PSoC5/I2C_PM.c **** *  I2C_backup - The non retention registers are restored from.
 259:Generated_Source\PSoC5/I2C_PM.c **** *
 260:Generated_Source\PSoC5/I2C_PM.c **** * Reentrant:
 261:Generated_Source\PSoC5/I2C_PM.c **** *  No.
 262:Generated_Source\PSoC5/I2C_PM.c **** *
 263:Generated_Source\PSoC5/I2C_PM.c **** * Side Effects:
 264:Generated_Source\PSoC5/I2C_PM.c **** *  Calling this function before I2C_SaveConfig() or
 265:Generated_Source\PSoC5/I2C_PM.c **** *  I2C_Sleep() will lead to unpredictable results.
 266:Generated_Source\PSoC5/I2C_PM.c **** *
 267:Generated_Source\PSoC5/I2C_PM.c **** *******************************************************************************/
 268:Generated_Source\PSoC5/I2C_PM.c **** void I2C_Wakeup(void) 
 269:Generated_Source\PSoC5/I2C_PM.c **** {
 182              		.loc 1 269 0
 183              		.cfi_startproc
 184              		@ args = 0, pretend = 0, frame = 0
 185              		@ frame_needed = 0, uses_anonymous_args = 0
 186 0000 08B5     		push	{r3, lr}
 187              		.cfi_def_cfa_offset 8
ARM GAS  C:\Users\lucdd\AppData\Local\Temp\ccaK19sf.s 			page 9


 188              		.cfi_offset 3, -8
 189              		.cfi_offset 14, -4
 270:Generated_Source\PSoC5/I2C_PM.c ****     I2C_RestoreConfig();
 190              		.loc 1 270 0
 191 0002 FFF7FEFF 		bl	I2C_RestoreConfig
 192              	.LVL4:
 271:Generated_Source\PSoC5/I2C_PM.c **** 
 272:Generated_Source\PSoC5/I2C_PM.c ****     if (0u != I2C_backup.enableState)
 193              		.loc 1 272 0
 194 0006 034B     		ldr	r3, .L18
 195 0008 1B78     		ldrb	r3, [r3]	@ zero_extendqisi2
 196 000a 0BB1     		cbz	r3, .L15
 273:Generated_Source\PSoC5/I2C_PM.c ****     {
 274:Generated_Source\PSoC5/I2C_PM.c ****         /* Enable component as it was enabled before Sleep */
 275:Generated_Source\PSoC5/I2C_PM.c ****         I2C_Enable();
 197              		.loc 1 275 0
 198 000c FFF7FEFF 		bl	I2C_Enable
 199              	.LVL5:
 200              	.L15:
 201 0010 08BD     		pop	{r3, pc}
 202              	.L19:
 203 0012 00BF     		.align	2
 204              	.L18:
 205 0014 00000000 		.word	.LANCHOR0
 206              		.cfi_endproc
 207              	.LFE3:
 208              		.size	I2C_Wakeup, .-I2C_Wakeup
 209              		.global	I2C_backup
 210              		.data
 211              		.align	2
 212              		.set	.LANCHOR0,. + 0
 213              		.type	I2C_backup, %object
 214              		.size	I2C_backup, 6
 215              	I2C_backup:
 216 0000 00       		.byte	0
 217 0001 81       		.byte	-127
 218 0002 08       		.byte	8
 219 0003 01       		.byte	1
 220 0004 0F       		.byte	15
 221 0005 00       		.byte	0
 222              		.text
 223              	.Letext0:
 224              		.file 2 "Generated_Source\\PSoC5\\cytypes.h"
 225              		.file 3 "Generated_Source\\PSoC5\\I2C.h"
 226              		.file 4 "Generated_Source\\PSoC5\\CyLib.h"