ARM GAS  C:\Users\dylan\AppData\Local\Temp\ccdCKqgk.s 			page 1


   1              		.syntax unified
   2              		.cpu cortex-m3
   3              		.fpu softvfp
   4              		.eabi_attribute 20, 1
   5              		.eabi_attribute 21, 1
   6              		.eabi_attribute 23, 3
   7              		.eabi_attribute 24, 1
   8              		.eabi_attribute 25, 1
   9              		.eabi_attribute 26, 1
  10              		.eabi_attribute 30, 1
  11              		.eabi_attribute 34, 1
  12              		.eabi_attribute 18, 4
  13              		.thumb
  14              		.syntax unified
  15              		.file	"main.c"
  16              		.text
  17              	.Ltext0:
  18              		.cfi_sections	.debug_frame
  19              		.section	.text.isr_rx,"ax",%progbits
  20              		.align	2
  21              		.global	isr_rx
  22              		.thumb
  23              		.thumb_func
  24              		.type	isr_rx, %function
  25              	isr_rx:
  26              	.LFB63:
  27              		.file 1 "main.c"
   1:main.c        **** #include "project.h"
   2:main.c        **** #include "stdlib.h"
   3:main.c        **** 
   4:main.c        **** /************* PIN DEFINITONS **************
   5:main.c        **** Motor 1 Step: Reg 5
   6:main.c        **** Motor 1 Direction: Reg 1, 0 is pos, 1 is neg
   7:main.c        **** Motor 1 Sleep: Reg 4
   8:main.c        **** ********************************************
   9:main.c        **** Motor 2 Step: Reg 6
  10:main.c        **** Motor 2 Direction: Reg 2, 0 is pos, 1 is neg
  11:main.c        **** Motor 2 Sleep: Reg 4
  12:main.c        **** ********************************************
  13:main.c        **** LED: Reg 3
  14:main.c        **** *******************************************/
  15:main.c        **** /******************************************/
  16:main.c        **** 
  17:main.c        **** // Gantry MAX travels
  18:main.c        **** // 1200 steps
  19:main.c        **** 
  20:main.c        **** // Camera coord MAX
  21:main.c        **** // X = 8 to X = 139
  22:main.c        **** // Y = 3 to Y = 175
  23:main.c        **** 
  24:main.c        **** #define steps_per_pixel 9.16
  25:main.c        **** 
  26:main.c        **** /************ FUNCTION PROTOTYPES *******************/
  27:main.c        **** int printf(const char * format, ...);
  28:main.c        **** double fabs(double);
  29:main.c        **** double floor(double);
  30:main.c        **** /**************************************************/
ARM GAS  C:\Users\dylan\AppData\Local\Temp\ccdCKqgk.s 			page 2


  31:main.c        **** 
  32:main.c        **** /************ UART RX INTERRUPT *********************/
  33:main.c        **** volatile int uart_recv_buf[4];
  34:main.c        **** volatile int uart_recv_count = 0;
  35:main.c        **** int x_1 = 0; // New point
  36:main.c        **** int y_1 = 0;
  37:main.c        **** 
  38:main.c        **** CY_ISR(isr_rx)
  39:main.c        **** {
  28              		.loc 1 39 0
  29              		.cfi_startproc
  30              		@ args = 0, pretend = 0, frame = 0
  31              		@ frame_needed = 0, uses_anonymous_args = 0
  32 0000 38B5     		push	{r3, r4, r5, lr}
  33              		.cfi_def_cfa_offset 16
  34              		.cfi_offset 3, -16
  35              		.cfi_offset 4, -12
  36              		.cfi_offset 5, -8
  37              		.cfi_offset 14, -4
  40:main.c        ****     uart_recv_buf[uart_recv_count] = UART_GetChar();
  38              		.loc 1 40 0
  39 0002 0D4C     		ldr	r4, .L4
  40 0004 2568     		ldr	r5, [r4]
  41 0006 FFF7FEFF 		bl	UART_GetChar
  42              	.LVL0:
  43 000a 0C4B     		ldr	r3, .L4+4
  44 000c 43F82500 		str	r0, [r3, r5, lsl #2]
  41:main.c        ****     uart_recv_count += 1;
  45              		.loc 1 41 0
  46 0010 2368     		ldr	r3, [r4]
  47 0012 0133     		adds	r3, r3, #1
  48 0014 2360     		str	r3, [r4]
  42:main.c        **** 
  43:main.c        ****     if (uart_recv_count > 3)
  49              		.loc 1 43 0
  50 0016 2368     		ldr	r3, [r4]
  51 0018 032B     		cmp	r3, #3
  52 001a 0CDD     		ble	.L1
  44:main.c        ****     {
  45:main.c        ****         x_1 = (uart_recv_buf[1] << 8) + uart_recv_buf[0]; // new coords
  53              		.loc 1 45 0
  54 001c 074B     		ldr	r3, .L4+4
  55 001e 5968     		ldr	r1, [r3, #4]
  56 0020 1A68     		ldr	r2, [r3]
  57 0022 02EB0121 		add	r1, r2, r1, lsl #8
  58 0026 6160     		str	r1, [r4, #4]
  46:main.c        ****         y_1 = (uart_recv_buf[3] << 8) + uart_recv_buf[2];
  59              		.loc 1 46 0
  60 0028 D968     		ldr	r1, [r3, #12]
  61 002a 9B68     		ldr	r3, [r3, #8]
  62 002c 03EB0123 		add	r3, r3, r1, lsl #8
  63 0030 A360     		str	r3, [r4, #8]
  47:main.c        ****         uart_recv_count = 0;
  64              		.loc 1 47 0
  65 0032 0023     		movs	r3, #0
  66 0034 2360     		str	r3, [r4]
  67              	.L1:
ARM GAS  C:\Users\dylan\AppData\Local\Temp\ccdCKqgk.s 			page 3


  68 0036 38BD     		pop	{r3, r4, r5, pc}
  69              	.L5:
  70              		.align	2
  71              	.L4:
  72 0038 00000000 		.word	.LANCHOR0
  73 003c 00000000 		.word	uart_recv_buf
  74              		.cfi_endproc
  75              	.LFE63:
  76              		.size	isr_rx, .-isr_rx
  77              		.global	__aeabi_i2f
  78              		.global	__aeabi_fadd
  79              		.global	__aeabi_f2d
  80              		.global	__aeabi_ddiv
  81              		.global	__aeabi_dadd
  82              		.global	__aeabi_d2f
  83              		.global	__aeabi_fsub
  84              		.section	.text.pulse_ready_isr,"ax",%progbits
  85              		.align	2
  86              		.global	pulse_ready_isr
  87              		.thumb
  88              		.thumb_func
  89              		.type	pulse_ready_isr, %function
  90              	pulse_ready_isr:
  91              	.LFB64:
  48:main.c        ****     }
  49:main.c        **** }
  50:main.c        **** /*************************************************/
  51:main.c        **** 
  52:main.c        **** /************** MOTOR PULSE INTERRUPT ***************/
  53:main.c        **** float x_0 = 0, y_0 = 0, dx = 0, dy = 0; // always start at (0, 0)
  54:main.c        **** float m1_steps = 0, m2_steps = 0;
  55:main.c        **** int m1_dir = 0, m2_dir = 0;
  56:main.c        **** int m1_dir_pin = 0, m2_dir_pin = 0;
  57:main.c        **** int m1_step_pin = 0, m2_step_pin = 0;
  58:main.c        **** 
  59:main.c        **** CY_ISR(pulse_ready_isr)
  60:main.c        **** {
  92              		.loc 1 60 0
  93              		.cfi_startproc
  94              		@ args = 0, pretend = 0, frame = 0
  95              		@ frame_needed = 0, uses_anonymous_args = 0
  96 0000 2DE9F843 		push	{r3, r4, r5, r6, r7, r8, r9, lr}
  97              		.cfi_def_cfa_offset 32
  98              		.cfi_offset 3, -32
  99              		.cfi_offset 4, -28
 100              		.cfi_offset 5, -24
 101              		.cfi_offset 6, -20
 102              		.cfi_offset 7, -16
 103              		.cfi_offset 8, -12
 104              		.cfi_offset 9, -8
 105              		.cfi_offset 14, -4
  61:main.c        ****     Control_Reg_5_Write(m1_step_pin); // Motor step
 106              		.loc 1 61 0
 107 0004 264C     		ldr	r4, .L8+8
 108 0006 207B     		ldrb	r0, [r4, #12]	@ zero_extendqisi2
 109 0008 FFF7FEFF 		bl	Control_Reg_5_Write
 110              	.LVL1:
ARM GAS  C:\Users\dylan\AppData\Local\Temp\ccdCKqgk.s 			page 4


  62:main.c        ****     Control_Reg_6_Write(m2_step_pin);
 111              		.loc 1 62 0
 112 000c 207C     		ldrb	r0, [r4, #16]	@ zero_extendqisi2
 113 000e FFF7FEFF 		bl	Control_Reg_6_Write
 114              	.LVL2:
  63:main.c        ****     
  64:main.c        ****     x_0 += -((float)m1_dir + (float)m2_dir) / (2 * steps_per_pixel);
 115              		.loc 1 64 0
 116 0012 6069     		ldr	r0, [r4, #20]
 117 0014 FFF7FEFF 		bl	__aeabi_i2f
 118              	.LVL3:
 119 0018 0546     		mov	r5, r0
 120 001a A069     		ldr	r0, [r4, #24]
 121 001c FFF7FEFF 		bl	__aeabi_i2f
 122              	.LVL4:
 123 0020 0646     		mov	r6, r0
 124 0022 0146     		mov	r1, r0
 125 0024 2846     		mov	r0, r5
 126 0026 FFF7FEFF 		bl	__aeabi_fadd
 127              	.LVL5:
 128 002a 00F10040 		add	r0, r0, #-2147483648
 129 002e FFF7FEFF 		bl	__aeabi_f2d
 130              	.LVL6:
 131 0032 19A3     		adr	r3, .L8
 132 0034 D3E90023 		ldrd	r2, [r3]
 133 0038 FFF7FEFF 		bl	__aeabi_ddiv
 134              	.LVL7:
 135 003c 8046     		mov	r8, r0
 136 003e 8946     		mov	r9, r1
 137 0040 E069     		ldr	r0, [r4, #28]	@ float
 138 0042 FFF7FEFF 		bl	__aeabi_f2d
 139              	.LVL8:
 140 0046 4246     		mov	r2, r8
 141 0048 4B46     		mov	r3, r9
 142 004a FFF7FEFF 		bl	__aeabi_dadd
 143              	.LVL9:
 144 004e FFF7FEFF 		bl	__aeabi_d2f
 145              	.LVL10:
 146 0052 E061     		str	r0, [r4, #28]	@ float
  65:main.c        ****     y_0 += ((float)m1_dir - (float)m2_dir) / (2 * steps_per_pixel);
 147              		.loc 1 65 0
 148 0054 3146     		mov	r1, r6
 149 0056 2846     		mov	r0, r5
 150 0058 FFF7FEFF 		bl	__aeabi_fsub
 151              	.LVL11:
 152 005c FFF7FEFF 		bl	__aeabi_f2d
 153              	.LVL12:
 154 0060 0DA3     		adr	r3, .L8
 155 0062 D3E90023 		ldrd	r2, [r3]
 156 0066 FFF7FEFF 		bl	__aeabi_ddiv
 157              	.LVL13:
 158 006a 0646     		mov	r6, r0
 159 006c 0F46     		mov	r7, r1
 160 006e 206A     		ldr	r0, [r4, #32]	@ float
 161 0070 FFF7FEFF 		bl	__aeabi_f2d
 162              	.LVL14:
 163 0074 3246     		mov	r2, r6
ARM GAS  C:\Users\dylan\AppData\Local\Temp\ccdCKqgk.s 			page 5


 164 0076 3B46     		mov	r3, r7
 165 0078 FFF7FEFF 		bl	__aeabi_dadd
 166              	.LVL15:
 167 007c FFF7FEFF 		bl	__aeabi_d2f
 168              	.LVL16:
 169 0080 2062     		str	r0, [r4, #32]	@ float
  66:main.c        ****     
  67:main.c        ****     Control_Reg_5_Write(0); // Motor reset
 170              		.loc 1 67 0
 171 0082 0020     		movs	r0, #0
 172 0084 FFF7FEFF 		bl	Control_Reg_5_Write
 173              	.LVL17:
  68:main.c        ****     Control_Reg_6_Write(0);
 174              		.loc 1 68 0
 175 0088 0020     		movs	r0, #0
 176 008a FFF7FEFF 		bl	Control_Reg_6_Write
 177              	.LVL18:
 178 008e BDE8F883 		pop	{r3, r4, r5, r6, r7, r8, r9, pc}
 179              	.L9:
 180 0092 00BFAFF3 		.align	3
 180      0080
 181              	.L8:
 182 0098 52B81E85 		.word	-2061584302
 183 009c EB513240 		.word	1077039595
 184 00a0 00000000 		.word	.LANCHOR0
 185              		.cfi_endproc
 186              	.LFE64:
 187              		.size	pulse_ready_isr, .-pulse_ready_isr
 188              		.section	.text.pos_reset,"ax",%progbits
 189              		.align	2
 190              		.global	pos_reset
 191              		.thumb
 192              		.thumb_func
 193              		.type	pos_reset, %function
 194              	pos_reset:
 195              	.LFB65:
  69:main.c        **** }    
  70:main.c        ****    
  71:main.c        **** /***********************************************/
  72:main.c        **** 
  73:main.c        **** /****************** (0, 0) ROUTINE ****************/
  74:main.c        **** CY_ISR(pos_reset)
  75:main.c        **** {
 196              		.loc 1 75 0
 197              		.cfi_startproc
 198              		@ args = 0, pretend = 0, frame = 0
 199              		@ frame_needed = 0, uses_anonymous_args = 0
 200 0000 08B5     		push	{r3, lr}
 201              		.cfi_def_cfa_offset 8
 202              		.cfi_offset 3, -8
 203              		.cfi_offset 14, -4
  76:main.c        ****     x_0 = 0;
 204              		.loc 1 76 0
 205 0002 034B     		ldr	r3, .L12
 206 0004 0022     		movs	r2, #0
 207 0006 DA61     		str	r2, [r3, #28]	@ float
  77:main.c        ****     y_0 = 0;
ARM GAS  C:\Users\dylan\AppData\Local\Temp\ccdCKqgk.s 			page 6


 208              		.loc 1 77 0
 209 0008 1A62     		str	r2, [r3, #32]	@ float
  78:main.c        ****     Pin_1_ClearInterrupt();
 210              		.loc 1 78 0
 211 000a FFF7FEFF 		bl	Pin_1_ClearInterrupt
 212              	.LVL19:
 213 000e 08BD     		pop	{r3, pc}
 214              	.L13:
 215              		.align	2
 216              	.L12:
 217 0010 00000000 		.word	.LANCHOR0
 218              		.cfi_endproc
 219              	.LFE65:
 220              		.size	pos_reset, .-pos_reset
 221              		.global	__aeabi_fcmpeq
 222              		.global	__aeabi_dmul
 223              		.global	__aeabi_d2iz
 224              		.global	__aeabi_dsub
 225              		.global	__aeabi_dcmpgt
 226              		.global	__aeabi_dcmplt
 227              		.section	.text.main,"ax",%progbits
 228              		.align	2
 229              		.global	main
 230              		.thumb
 231              		.thumb_func
 232              		.type	main, %function
 233              	main:
 234              	.LFB66:
  79:main.c        **** }
  80:main.c        **** /************************************************/
  81:main.c        **** 
  82:main.c        **** int main(void)
  83:main.c        **** {
 235              		.loc 1 83 0
 236              		.cfi_startproc
 237              		@ Volatile: function does not return.
 238              		@ args = 0, pretend = 0, frame = 0
 239              		@ frame_needed = 0, uses_anonymous_args = 0
 240 0000 80B5     		push	{r7, lr}
 241              		.cfi_def_cfa_offset 8
 242              		.cfi_offset 7, -8
 243              		.cfi_offset 14, -4
  84:main.c        ****     CyDelay(1000); // Wait 1 second for "safety"
 244              		.loc 1 84 0
 245 0002 4FF47A70 		mov	r0, #1000
 246 0006 FFF7FEFF 		bl	CyDelay
 247              	.LVL20:
  85:main.c        ****     
  86:main.c        ****     UART_Start(); // Obvi must call before next line
 248              		.loc 1 86 0
 249 000a FFF7FEFF 		bl	UART_Start
 250              	.LVL21:
  87:main.c        ****     printf("Program started...");
 251              		.loc 1 87 0
 252 000e 9648     		ldr	r0, .L40+16
 253 0010 FFF7FEFF 		bl	printf
 254              	.LVL22:
ARM GAS  C:\Users\dylan\AppData\Local\Temp\ccdCKqgk.s 			page 7


  88:main.c        ****     
  89:main.c        ****     /****************** PWM INIT **************************/
  90:main.c        ****     /* Must happen before PULSE CLOCK INIT or might miss pulses */
  91:main.c        ****     PWM_1_Start();
 255              		.loc 1 91 0
 256 0014 FFF7FEFF 		bl	PWM_1_Start
 257              	.LVL23:
  92:main.c        ****     PWM_2_Start();
 258              		.loc 1 92 0
 259 0018 FFF7FEFF 		bl	PWM_2_Start
 260              	.LVL24:
  93:main.c        ****     
  94:main.c        ****     /****************** PULSE CLOCK INIT *********************/
  95:main.c        ****     /* The period between motor pulses is set according to:
  96:main.c        ****     PULSE_PERIOD = BUS_CLK_FREQUENCY_HZ * DESIRED_PERIOD_SEC */
  97:main.c        ****     Timer_1_Start(); // PULSE_PERIOD is set in Timer_1 block
 261              		.loc 1 97 0
 262 001c FFF7FEFF 		bl	Timer_1_Start
 263              	.LVL25:
  98:main.c        ****     pulse_ready_isr_StartEx(pulse_ready_isr);
 264              		.loc 1 98 0
 265 0020 9248     		ldr	r0, .L40+20
 266 0022 FFF7FEFF 		bl	pulse_ready_isr_StartEx
 267              	.LVL26:
  99:main.c        ****     pulse_ready_isr_Enable();
 268              		.loc 1 99 0
 269 0026 FFF7FEFF 		bl	pulse_ready_isr_Enable
 270              	.LVL27:
 100:main.c        ****     /*********************************************************/
 101:main.c        ****     
 102:main.c        ****     /****************** UART INTERRUPT INIT *********************/
 103:main.c        ****     isr_rx_StartEx(isr_rx); /* set up UART interrupt vector*/
 271              		.loc 1 103 0
 272 002a 9148     		ldr	r0, .L40+24
 273 002c FFF7FEFF 		bl	isr_rx_StartEx
 274              	.LVL28:
 104:main.c        ****     isr_rx_Enable();        /* arm the UART interrupt*/
 275              		.loc 1 104 0
 276 0030 FFF7FEFF 		bl	isr_rx_Enable
 277              	.LVL29:
 105:main.c        ****     /**************************************************/
 106:main.c        ****     
 107:main.c        ****     /********************** (0, 0) INIT ***********************/
 108:main.c        ****     pos_reset_StartEx(pos_reset);
 278              		.loc 1 108 0
 279 0034 8F48     		ldr	r0, .L40+28
 280 0036 FFF7FEFF 		bl	pos_reset_StartEx
 281              	.LVL30:
 109:main.c        ****     pos_reset_Enable();
 282              		.loc 1 109 0
 283 003a FFF7FEFF 		bl	pos_reset_Enable
 284              	.LVL31:
 110:main.c        ****     /************************************************/
 111:main.c        ****     
 112:main.c        ****     CyGlobalIntEnable;      // Enable global interrupts
 285              		.loc 1 112 0
 286              		.syntax unified
ARM GAS  C:\Users\dylan\AppData\Local\Temp\ccdCKqgk.s 			page 8


 287              	@ 112 "main.c" 1
 288 003e 62B6     		CPSIE   i
 289              	@ 0 "" 2
 113:main.c        ****     
 114:main.c        ****     Control_Reg_3_Write(0); // Start with LED off
 290              		.loc 1 114 0
 291              		.thumb
 292              		.syntax unified
 293 0040 0020     		movs	r0, #0
 294 0042 FFF7FEFF 		bl	Control_Reg_3_Write
 295              	.LVL32:
 296              	.L15:
 115:main.c        **** 
 116:main.c        ****     while (1)
 117:main.c        ****     {
 118:main.c        ****         // printf("\t(%.2f, %.2f)\t", x_0, y_0);
 119:main.c        ****         dx = (float)x_1 - x_0;
 297              		.loc 1 119 0
 298 0046 8C4C     		ldr	r4, .L40+32
 299 0048 D4F80480 		ldr	r8, [r4, #4]
 300 004c 4046     		mov	r0, r8
 301 004e FFF7FEFF 		bl	__aeabi_i2f
 302              	.LVL33:
 303 0052 E169     		ldr	r1, [r4, #28]	@ float
 304 0054 FFF7FEFF 		bl	__aeabi_fsub
 305              	.LVL34:
 306 0058 0546     		mov	r5, r0
 307 005a 6062     		str	r0, [r4, #36]	@ float
 120:main.c        ****         dy = (float)y_1 - y_0;
 308              		.loc 1 120 0
 309 005c A768     		ldr	r7, [r4, #8]
 310 005e 3846     		mov	r0, r7
 311 0060 FFF7FEFF 		bl	__aeabi_i2f
 312              	.LVL35:
 313 0064 216A     		ldr	r1, [r4, #32]	@ float
 314 0066 FFF7FEFF 		bl	__aeabi_fsub
 315              	.LVL36:
 316 006a 0646     		mov	r6, r0
 317 006c A062     		str	r0, [r4, #40]	@ float
 121:main.c        ****         if ( (dx != 0 && x_1 <= 131) || (dy != 0 && y_1 <= 100) )
 318              		.loc 1 121 0
 319 006e 0021     		movs	r1, #0
 320 0070 2846     		mov	r0, r5
 321 0072 FFF7FEFF 		bl	__aeabi_fcmpeq
 322              	.LVL37:
 323 0076 10B9     		cbnz	r0, .L16
 324              		.loc 1 121 0 is_stmt 0 discriminator 1
 325 0078 B8F1830F 		cmp	r8, #131
 326 007c 09DD     		ble	.L18
 327              	.L16:
 328              		.loc 1 121 0 discriminator 3
 329 007e 0021     		movs	r1, #0
 330 0080 3046     		mov	r0, r6
 331 0082 FFF7FEFF 		bl	__aeabi_fcmpeq
 332              	.LVL38:
 333 0086 0028     		cmp	r0, #0
 334 0088 40F0D780 		bne	.L19
ARM GAS  C:\Users\dylan\AppData\Local\Temp\ccdCKqgk.s 			page 9


 335              		.loc 1 121 0 discriminator 4
 336 008c 642F     		cmp	r7, #100
 337 008e 00F3D480 		bgt	.L19
 338              	.L18:
 122:main.c        ****         {   
 123:main.c        ****             Control_Reg_4_Write(m1_step_pin || m2_step_pin); // Motor wake/sleep
 339              		.loc 1 123 0 is_stmt 1
 340 0092 794B     		ldr	r3, .L40+32
 341 0094 DB68     		ldr	r3, [r3, #12]
 342 0096 23B9     		cbnz	r3, .L30
 343              		.loc 1 123 0 is_stmt 0 discriminator 2
 344 0098 774B     		ldr	r3, .L40+32
 345 009a 1869     		ldr	r0, [r3, #16]
 346 009c 10B1     		cbz	r0, .L21
 347              		.loc 1 123 0
 348 009e 0120     		movs	r0, #1
 349 00a0 00E0     		b	.L21
 350              	.L30:
 351 00a2 0120     		movs	r0, #1
 352              	.L21:
 353              		.loc 1 123 0 discriminator 6
 354 00a4 C0B2     		uxtb	r0, r0
 355 00a6 FFF7FEFF 		bl	Control_Reg_4_Write
 356              	.LVL39:
 124:main.c        ****             Control_Reg_3_Write(1); // LED on
 357              		.loc 1 124 0 is_stmt 1 discriminator 6
 358 00aa 0120     		movs	r0, #1
 359 00ac FFF7FEFF 		bl	Control_Reg_3_Write
 360              	.LVL40:
 125:main.c        ****             
 126:main.c        ****             m1_steps = -(dx - dy) * steps_per_pixel; // Negative because 0 is pos rotation
 361              		.loc 1 126 0 discriminator 6
 362 00b0 714C     		ldr	r4, .L40+32
 363 00b2 666A     		ldr	r6, [r4, #36]	@ float
 364 00b4 A76A     		ldr	r7, [r4, #40]	@ float
 365 00b6 3946     		mov	r1, r7
 366 00b8 3046     		mov	r0, r6
 367 00ba FFF7FEFF 		bl	__aeabi_fsub
 368              	.LVL41:
 369 00be 00F10040 		add	r0, r0, #-2147483648
 370 00c2 FFF7FEFF 		bl	__aeabi_f2d
 371              	.LVL42:
 372 00c6 64A3     		adr	r3, .L40
 373 00c8 D3E90023 		ldrd	r2, [r3]
 374 00cc FFF7FEFF 		bl	__aeabi_dmul
 375              	.LVL43:
 376 00d0 FFF7FEFF 		bl	__aeabi_d2f
 377              	.LVL44:
 378 00d4 0546     		mov	r5, r0
 379 00d6 E062     		str	r0, [r4, #44]	@ float
 127:main.c        ****             m2_steps = -(dx + dy) * steps_per_pixel; // and 1 is neg rotation (use RHR)
 380              		.loc 1 127 0 discriminator 6
 381 00d8 3946     		mov	r1, r7
 382 00da 3046     		mov	r0, r6
 383 00dc FFF7FEFF 		bl	__aeabi_fadd
 384              	.LVL45:
 385 00e0 00F10040 		add	r0, r0, #-2147483648
ARM GAS  C:\Users\dylan\AppData\Local\Temp\ccdCKqgk.s 			page 10


 386 00e4 FFF7FEFF 		bl	__aeabi_f2d
 387              	.LVL46:
 388 00e8 5BA3     		adr	r3, .L40
 389 00ea D3E90023 		ldrd	r2, [r3]
 390 00ee FFF7FEFF 		bl	__aeabi_dmul
 391              	.LVL47:
 392 00f2 FFF7FEFF 		bl	__aeabi_d2f
 393              	.LVL48:
 394 00f6 0646     		mov	r6, r0
 395 00f8 2063     		str	r0, [r4, #48]	@ float
 128:main.c        ****                 
 129:main.c        ****             m1_dir = m1_steps / fabs(m1_steps); // Dir for increment; -1, 0, 1
 396              		.loc 1 129 0 discriminator 6
 397 00fa 25F00040 		bic	r0, r5, #-2147483648
 398 00fe FFF7FEFF 		bl	__aeabi_f2d
 399              	.LVL49:
 400 0102 8046     		mov	r8, r0
 401 0104 8946     		mov	r9, r1
 402 0106 2846     		mov	r0, r5
 403 0108 FFF7FEFF 		bl	__aeabi_f2d
 404              	.LVL50:
 405 010c 4246     		mov	r2, r8
 406 010e 4B46     		mov	r3, r9
 407 0110 FFF7FEFF 		bl	__aeabi_ddiv
 408              	.LVL51:
 409 0114 FFF7FEFF 		bl	__aeabi_d2iz
 410              	.LVL52:
 411 0118 0546     		mov	r5, r0
 412 011a 6061     		str	r0, [r4, #20]
 130:main.c        ****             m2_dir = m2_steps / fabs(m2_steps);
 413              		.loc 1 130 0 discriminator 6
 414 011c 26F00040 		bic	r0, r6, #-2147483648
 415 0120 FFF7FEFF 		bl	__aeabi_f2d
 416              	.LVL53:
 417 0124 8046     		mov	r8, r0
 418 0126 8946     		mov	r9, r1
 419 0128 3046     		mov	r0, r6
 420 012a FFF7FEFF 		bl	__aeabi_f2d
 421              	.LVL54:
 422 012e 4246     		mov	r2, r8
 423 0130 4B46     		mov	r3, r9
 424 0132 FFF7FEFF 		bl	__aeabi_ddiv
 425              	.LVL55:
 426 0136 FFF7FEFF 		bl	__aeabi_d2iz
 427              	.LVL56:
 428 013a 0346     		mov	r3, r0
 429 013c A061     		str	r0, [r4, #24]
 131:main.c        ****             
 132:main.c        ****             m1_dir_pin = 1 == m1_dir; // Dir pin; 0, 1
 430              		.loc 1 132 0 discriminator 6
 431 013e 012D     		cmp	r5, #1
 432 0140 14BF     		ite	ne
 433 0142 0020     		movne	r0, #0
 434 0144 0120     		moveq	r0, #1
 435 0146 6063     		str	r0, [r4, #52]
 133:main.c        ****             m2_dir_pin = 1 == m2_dir;
 436              		.loc 1 133 0 discriminator 6
ARM GAS  C:\Users\dylan\AppData\Local\Temp\ccdCKqgk.s 			page 11


 437 0148 012B     		cmp	r3, #1
 438 014a 14BF     		ite	ne
 439 014c 0022     		movne	r2, #0
 440 014e 0122     		moveq	r2, #1
 441 0150 A263     		str	r2, [r4, #56]
 134:main.c        ****             
 135:main.c        ****             m1_step_pin = 1 == m1_dir || -1 == m1_dir; // Step pin; 0, 1
 442              		.loc 1 135 0 discriminator 6
 443 0152 012D     		cmp	r5, #1
 444 0154 05D0     		beq	.L22
 445              		.loc 1 135 0 is_stmt 0 discriminator 2
 446 0156 B5F1FF3F 		cmp	r5, #-1
 447 015a 01D1     		bne	.L31
 448              		.loc 1 135 0
 449 015c 0125     		movs	r5, #1
 450 015e 00E0     		b	.L22
 451              	.L31:
 452 0160 0025     		movs	r5, #0
 453              	.L22:
 454              		.loc 1 135 0 discriminator 6
 455 0162 454A     		ldr	r2, .L40+32
 456 0164 D560     		str	r5, [r2, #12]
 136:main.c        ****             m2_step_pin = 1 == m2_dir || -1 == m2_dir;
 457              		.loc 1 136 0 is_stmt 1 discriminator 6
 458 0166 012B     		cmp	r3, #1
 459 0168 05D0     		beq	.L23
 460              		.loc 1 136 0 is_stmt 0 discriminator 2
 461 016a B3F1FF3F 		cmp	r3, #-1
 462 016e 01D1     		bne	.L32
 463              		.loc 1 136 0
 464 0170 0123     		movs	r3, #1
 465 0172 00E0     		b	.L23
 466              	.L32:
 467 0174 0023     		movs	r3, #0
 468              	.L23:
 469              		.loc 1 136 0 discriminator 6
 470 0176 404C     		ldr	r4, .L40+32
 471 0178 2361     		str	r3, [r4, #16]
 137:main.c        ****             
 138:main.c        ****             // Dir pins
 139:main.c        ****             Control_Reg_1_Write(m1_dir_pin);
 472              		.loc 1 139 0 is_stmt 1 discriminator 6
 473 017a FFF7FEFF 		bl	Control_Reg_1_Write
 474              	.LVL57:
 140:main.c        ****             Control_Reg_2_Write(m2_dir_pin);
 475              		.loc 1 140 0 discriminator 6
 476 017e 94F83800 		ldrb	r0, [r4, #56]	@ zero_extendqisi2
 477 0182 FFF7FEFF 		bl	Control_Reg_2_Write
 478              	.LVL58:
 141:main.c        **** 
 142:main.c        ****             #define FP_TOL 0.01 // Fixes floating point imprecision
 143:main.c        ****             if (x_0 > (float)x_1 - FP_TOL && x_0 < (float)x_1 + FP_TOL)
 479              		.loc 1 143 0 discriminator 6
 480 0186 E069     		ldr	r0, [r4, #28]	@ float
 481 0188 FFF7FEFF 		bl	__aeabi_f2d
 482              	.LVL59:
 483 018c 0646     		mov	r6, r0
ARM GAS  C:\Users\dylan\AppData\Local\Temp\ccdCKqgk.s 			page 12


 484 018e 0F46     		mov	r7, r1
 485 0190 6068     		ldr	r0, [r4, #4]
 486 0192 FFF7FEFF 		bl	__aeabi_i2f
 487              	.LVL60:
 488 0196 8046     		mov	r8, r0
 489 0198 FFF7FEFF 		bl	__aeabi_f2d
 490              	.LVL61:
 491 019c 0446     		mov	r4, r0
 492 019e 0D46     		mov	r5, r1
 493 01a0 2FA3     		adr	r3, .L40+8
 494 01a2 D3E90023 		ldrd	r2, [r3]
 495 01a6 FFF7FEFF 		bl	__aeabi_dsub
 496              	.LVL62:
 497 01aa 0246     		mov	r2, r0
 498 01ac 0B46     		mov	r3, r1
 499 01ae 3046     		mov	r0, r6
 500 01b0 3946     		mov	r1, r7
 501 01b2 FFF7FEFF 		bl	__aeabi_dcmpgt
 502              	.LVL63:
 503 01b6 80B1     		cbz	r0, .L24
 504              		.loc 1 143 0 is_stmt 0 discriminator 1
 505 01b8 29A3     		adr	r3, .L40+8
 506 01ba D3E90023 		ldrd	r2, [r3]
 507 01be 2046     		mov	r0, r4
 508 01c0 2946     		mov	r1, r5
 509 01c2 FFF7FEFF 		bl	__aeabi_dadd
 510              	.LVL64:
 511 01c6 0246     		mov	r2, r0
 512 01c8 0B46     		mov	r3, r1
 513 01ca 3046     		mov	r0, r6
 514 01cc 3946     		mov	r1, r7
 515 01ce FFF7FEFF 		bl	__aeabi_dcmplt
 516              	.LVL65:
 517 01d2 10B1     		cbz	r0, .L24
 144:main.c        ****             {
 145:main.c        ****                 x_0 = x_1;
 518              		.loc 1 145 0 is_stmt 1
 519 01d4 284B     		ldr	r3, .L40+32
 520 01d6 C3F81C80 		str	r8, [r3, #28]	@ float
 521              	.L24:
 146:main.c        ****             }
 147:main.c        ****             if (y_0 > (float)y_1 - FP_TOL && y_0 < (float)y_1 + FP_TOL)
 522              		.loc 1 147 0
 523 01da 274C     		ldr	r4, .L40+32
 524 01dc 206A     		ldr	r0, [r4, #32]	@ float
 525 01de FFF7FEFF 		bl	__aeabi_f2d
 526              	.LVL66:
 527 01e2 0646     		mov	r6, r0
 528 01e4 0F46     		mov	r7, r1
 529 01e6 A068     		ldr	r0, [r4, #8]
 530 01e8 FFF7FEFF 		bl	__aeabi_i2f
 531              	.LVL67:
 532 01ec 8046     		mov	r8, r0
 533 01ee FFF7FEFF 		bl	__aeabi_f2d
 534              	.LVL68:
 535 01f2 0446     		mov	r4, r0
 536 01f4 0D46     		mov	r5, r1
ARM GAS  C:\Users\dylan\AppData\Local\Temp\ccdCKqgk.s 			page 13


 537 01f6 1AA3     		adr	r3, .L40+8
 538 01f8 D3E90023 		ldrd	r2, [r3]
 539 01fc FFF7FEFF 		bl	__aeabi_dsub
 540              	.LVL69:
 541 0200 0246     		mov	r2, r0
 542 0202 0B46     		mov	r3, r1
 543 0204 3046     		mov	r0, r6
 544 0206 3946     		mov	r1, r7
 545 0208 FFF7FEFF 		bl	__aeabi_dcmpgt
 546              	.LVL70:
 547 020c 0028     		cmp	r0, #0
 548 020e 3FF41AAF 		beq	.L15
 549              		.loc 1 147 0 is_stmt 0 discriminator 1
 550 0212 13A3     		adr	r3, .L40+8
 551 0214 D3E90023 		ldrd	r2, [r3]
 552 0218 2046     		mov	r0, r4
 553 021a 2946     		mov	r1, r5
 554 021c FFF7FEFF 		bl	__aeabi_dadd
 555              	.LVL71:
 556 0220 0246     		mov	r2, r0
 557 0222 0B46     		mov	r3, r1
 558 0224 3046     		mov	r0, r6
 559 0226 3946     		mov	r1, r7
 560 0228 FFF7FEFF 		bl	__aeabi_dcmplt
 561              	.LVL72:
 562 022c 0028     		cmp	r0, #0
 563 022e 3FF40AAF 		beq	.L15
 148:main.c        ****             {
 149:main.c        ****                 y_0 = y_1;
 564              		.loc 1 149 0 is_stmt 1
 565 0232 114B     		ldr	r3, .L40+32
 566 0234 C3F82080 		str	r8, [r3, #32]	@ float
 567 0238 05E7     		b	.L15
 568              	.L19:
 150:main.c        ****             }
 151:main.c        ****         }
 152:main.c        ****         else
 153:main.c        ****         {
 154:main.c        ****             m1_dir = 0; m2_dir = 0;
 569              		.loc 1 154 0
 570 023a 0F4B     		ldr	r3, .L40+32
 571 023c 0024     		movs	r4, #0
 572 023e 5C61     		str	r4, [r3, #20]
 573 0240 9C61     		str	r4, [r3, #24]
 155:main.c        ****             m1_step_pin = 0, m2_step_pin = 0;
 574              		.loc 1 155 0
 575 0242 DC60     		str	r4, [r3, #12]
 576 0244 1C61     		str	r4, [r3, #16]
 156:main.c        ****             Control_Reg_4_Write(0); // Motor sleep
 577              		.loc 1 156 0
 578 0246 2046     		mov	r0, r4
 579 0248 FFF7FEFF 		bl	Control_Reg_4_Write
 580              	.LVL73:
 157:main.c        ****             Control_Reg_3_Write(0); // LED off if no movement
 581              		.loc 1 157 0
 582 024c 2046     		mov	r0, r4
 583 024e FFF7FEFF 		bl	Control_Reg_3_Write
ARM GAS  C:\Users\dylan\AppData\Local\Temp\ccdCKqgk.s 			page 14


 584              	.LVL74:
 585 0252 F8E6     		b	.L15
 586              	.L41:
 587 0254 AFF30080 		.align	3
 588              	.L40:
 589 0258 52B81E85 		.word	-2061584302
 590 025c EB512240 		.word	1075991019
 591 0260 7B14AE47 		.word	1202590843
 592 0264 E17A843F 		.word	1065646817
 593 0268 00000000 		.word	.LC0
 594 026c 00000000 		.word	pulse_ready_isr
 595 0270 00000000 		.word	isr_rx
 596 0274 00000000 		.word	pos_reset
 597 0278 00000000 		.word	.LANCHOR0
 598              		.cfi_endproc
 599              	.LFE66:
 600              		.size	main, .-main
 601              		.global	m2_step_pin
 602              		.global	m1_step_pin
 603              		.global	m2_dir_pin
 604              		.global	m1_dir_pin
 605              		.global	m2_dir
 606              		.global	m1_dir
 607              		.global	m2_steps
 608              		.global	m1_steps
 609              		.global	dy
 610              		.global	dx
 611              		.global	y_0
 612              		.global	x_0
 613              		.global	y_1
 614              		.global	x_1
 615              		.global	uart_recv_count
 616              		.comm	uart_recv_buf,16,4
 617              		.section	.rodata.str1.4,"aMS",%progbits,1
 618              		.align	2
 619              	.LC0:
 620 0000 50726F67 		.ascii	"Program started...\000"
 620      72616D20 
 620      73746172 
 620      7465642E 
 620      2E2E00
 621              		.bss
 622              		.align	2
 623              		.set	.LANCHOR0,. + 0
 624              		.type	uart_recv_count, %object
 625              		.size	uart_recv_count, 4
 626              	uart_recv_count:
 627 0000 00000000 		.space	4
 628              		.type	x_1, %object
 629              		.size	x_1, 4
 630              	x_1:
 631 0004 00000000 		.space	4
 632              		.type	y_1, %object
 633              		.size	y_1, 4
 634              	y_1:
 635 0008 00000000 		.space	4
 636              		.type	m1_step_pin, %object
ARM GAS  C:\Users\dylan\AppData\Local\Temp\ccdCKqgk.s 			page 15


 637              		.size	m1_step_pin, 4
 638              	m1_step_pin:
 639 000c 00000000 		.space	4
 640              		.type	m2_step_pin, %object
 641              		.size	m2_step_pin, 4
 642              	m2_step_pin:
 643 0010 00000000 		.space	4
 644              		.type	m1_dir, %object
 645              		.size	m1_dir, 4
 646              	m1_dir:
 647 0014 00000000 		.space	4
 648              		.type	m2_dir, %object
 649              		.size	m2_dir, 4
 650              	m2_dir:
 651 0018 00000000 		.space	4
 652              		.type	x_0, %object
 653              		.size	x_0, 4
 654              	x_0:
 655 001c 00000000 		.space	4
 656              		.type	y_0, %object
 657              		.size	y_0, 4
 658              	y_0:
 659 0020 00000000 		.space	4
 660              		.type	dx, %object
 661              		.size	dx, 4
 662              	dx:
 663 0024 00000000 		.space	4
 664              		.type	dy, %object
 665              		.size	dy, 4
 666              	dy:
 667 0028 00000000 		.space	4
 668              		.type	m1_steps, %object
 669              		.size	m1_steps, 4
 670              	m1_steps:
 671 002c 00000000 		.space	4
 672              		.type	m2_steps, %object
 673              		.size	m2_steps, 4
 674              	m2_steps:
 675 0030 00000000 		.space	4
 676              		.type	m1_dir_pin, %object
 677              		.size	m1_dir_pin, 4
 678              	m1_dir_pin:
 679 0034 00000000 		.space	4
 680              		.type	m2_dir_pin, %object
 681              		.size	m2_dir_pin, 4
 682              	m2_dir_pin:
 683 0038 00000000 		.space	4
 684              		.text
 685              	.Letext0:
 686              		.file 2 "c:\\program files (x86)\\cypress\\psoc creator\\4.2\\psoc creator\\import\\gnu\\arm\\5.4.
 687              		.file 3 "c:\\program files (x86)\\cypress\\psoc creator\\4.2\\psoc creator\\import\\gnu\\arm\\5.4.
 688              		.file 4 "Generated_Source\\PSoC5/core_cm3.h"
 689              		.file 5 "Generated_Source\\PSoC5/UART.h"
 690              		.file 6 "Generated_Source\\PSoC5/Control_Reg_5.h"
 691              		.file 7 "Generated_Source\\PSoC5/Control_Reg_6.h"
 692              		.file 8 "Generated_Source\\PSoC5/Pin_1.h"
 693              		.file 9 "Generated_Source\\PSoC5/CyLib.h"
ARM GAS  C:\Users\dylan\AppData\Local\Temp\ccdCKqgk.s 			page 16


 694              		.file 10 "Generated_Source\\PSoC5/PWM_1.h"
 695              		.file 11 "Generated_Source\\PSoC5/PWM_2.h"
 696              		.file 12 "Generated_Source\\PSoC5/Timer_1.h"
 697              		.file 13 "Generated_Source\\PSoC5/pulse_ready_isr.h"
 698              		.file 14 "Generated_Source\\PSoC5/isr_rx.h"
 699              		.file 15 "Generated_Source\\PSoC5/pos_reset.h"
 700              		.file 16 "Generated_Source\\PSoC5/Control_Reg_3.h"
 701              		.file 17 "Generated_Source\\PSoC5/Control_Reg_4.h"
 702              		.file 18 "Generated_Source\\PSoC5/Control_Reg_1.h"
 703              		.file 19 "Generated_Source\\PSoC5/Control_Reg_2.h"