ARM GAS  C:\Users\lucdd\AppData\Local\Temp\ccGt8oOA.s 			page 1


   1              		.syntax unified
   2              		.cpu cortex-m3
   3              		.fpu softvfp
   4              		.eabi_attribute 20, 1
   5              		.eabi_attribute 21, 1
   6              		.eabi_attribute 23, 3
   7              		.eabi_attribute 24, 1
   8              		.eabi_attribute 25, 1
   9              		.eabi_attribute 26, 1
  10              		.eabi_attribute 30, 1
  11              		.eabi_attribute 34, 1
  12              		.eabi_attribute 18, 4
  13              		.thumb
  14              		.syntax unified
  15              		.file	"untitled01.c"
  16              		.text
  17              	.Ltext0:
  18              		.cfi_sections	.debug_frame
  19              		.section	.text._write,"ax",%progbits
  20              		.align	2
  21              		.global	_write
  22              		.thumb
  23              		.thumb_func
  24              		.type	_write, %function
  25              	_write:
  26              	.LFB0:
  27              		.file 1 "untitled01.c"
   1:untitled01.c  **** #if defined(__ARMCC_VERSION)
   2:untitled01.c  **** /* For MDK/RVDS compiler revise fputc function for printf functionality */
   3:untitled01.c  **** struct __FILE 
   4:untitled01.c  **** {
   5:untitled01.c  **** int handle;  
   6:untitled01.c  **** };
   7:untitled01.c  **** enum 
   8:untitled01.c  **** {
   9:untitled01.c  **** STDIN_HANDLE,
  10:untitled01.c  **** STDOUT_HANDLE,
  11:untitled01.c  **** STDERR_HANDLE
  12:untitled01.c  **** };
  13:untitled01.c  **** FILE __stdin = {STDIN_HANDLE};
  14:untitled01.c  **** FILE __stdout = {STDOUT_HANDLE};
  15:untitled01.c  **** FILE __stderr = {STDERR_HANDLE};
  16:untitled01.c  **** int fputc(int ch, FILE *file) 
  17:untitled01.c  **** {
  18:untitled01.c  **** int ret = EOF;
  19:untitled01.c  **** switch( file->handle )
  20:untitled01.c  **** {
  21:untitled01.c  **** case STDOUT_HANDLE:
  22:untitled01.c  **** UART_UartPutChar(ch);
  23:untitled01.c  **** ret = ch ;
  24:untitled01.c  **** break ;
  25:untitled01.c  **** case STDERR_HANDLE:
  26:untitled01.c  **** ret = ch ;
  27:untitled01.c  **** break ;
  28:untitled01.c  **** default:
  29:untitled01.c  **** file = file;
  30:untitled01.c  **** break ;
ARM GAS  C:\Users\lucdd\AppData\Local\Temp\ccGt8oOA.s 			page 2


  31:untitled01.c  **** }
  32:untitled01.c  **** return ret ;
  33:untitled01.c  **** }
  34:untitled01.c  **** #elif defined (__ICCARM__)      /* IAR */
  35:untitled01.c  **** /* For IAR compiler revise __write() function for printf functionality */
  36:untitled01.c  **** size_t __write(int handle, const unsigned char * buffer, size_t size)
  37:untitled01.c  **** {
  38:untitled01.c  **** size_t nChars = 0;
  39:untitled01.c  **** if (buffer == 0)
  40:untitled01.c  **** {
  41:untitled01.c  **** /*
  42:untitled01.c  **** * This means that we should flush internal buffers.  Since we
  43:untitled01.c  **** * don't we just return.  (Remember, "handle" == -1 means that all
  44:untitled01.c  **** * handles should be flushed.)
  45:untitled01.c  **** */
  46:untitled01.c  **** return (0);
  47:untitled01.c  **** }
  48:untitled01.c  **** for (/* Empty */; size != 0; --size)
  49:untitled01.c  **** {
  50:untitled01.c  **** UART_PutChar(*buffer++);
  51:untitled01.c  **** ++nChars;
  52:untitled01.c  **** }
  53:untitled01.c  **** return (nChars);
  54:untitled01.c  **** }
  55:untitled01.c  **** #else  /* (__GNUC__)  GCC */
  56:untitled01.c  **** /* For GCC compiler revise _write() function for printf functionality */
  57:untitled01.c  **** int _write(int file, char *ptr, int len)
  58:untitled01.c  **** {
  28              		.loc 1 58 0
  29              		.cfi_startproc
  30              		@ args = 0, pretend = 0, frame = 0
  31              		@ frame_needed = 0, uses_anonymous_args = 0
  32              	.LVL0:
  33 0000 70B5     		push	{r4, r5, r6, lr}
  34              		.cfi_def_cfa_offset 16
  35              		.cfi_offset 4, -16
  36              		.cfi_offset 5, -12
  37              		.cfi_offset 6, -8
  38              		.cfi_offset 14, -4
  39 0002 1646     		mov	r6, r2
  40              	.LVL1:
  59:untitled01.c  **** int i;
  60:untitled01.c  **** file = file;
  61:untitled01.c  **** for (i = 0; i < len; i++)
  41              		.loc 1 61 0
  42 0004 0024     		movs	r4, #0
  43 0006 05E0     		b	.L2
  44              	.LVL2:
  45              	.L3:
  46              	.LBB2:
  62:untitled01.c  **** {
  63:untitled01.c  **** UART_PutChar(*ptr++);
  47              		.loc 1 63 0 discriminator 3
  48 0008 4D1C     		adds	r5, r1, #1
  49              	.LVL3:
  50 000a 0878     		ldrb	r0, [r1]	@ zero_extendqisi2
  51 000c FFF7FEFF 		bl	UART_PutChar
ARM GAS  C:\Users\lucdd\AppData\Local\Temp\ccGt8oOA.s 			page 3


  52              	.LVL4:
  53              	.LBE2:
  61:untitled01.c  **** {
  54              		.loc 1 61 0 discriminator 3
  55 0010 0134     		adds	r4, r4, #1
  56              	.LVL5:
  57              	.LBB3:
  58              		.loc 1 63 0 discriminator 3
  59 0012 2946     		mov	r1, r5
  60              	.LVL6:
  61              	.L2:
  62              	.LBE3:
  61:untitled01.c  **** {
  63              		.loc 1 61 0 discriminator 1
  64 0014 B442     		cmp	r4, r6
  65 0016 F7DB     		blt	.L3
  64:untitled01.c  **** }
  65:untitled01.c  **** return len;
  66:untitled01.c  **** }
  66              		.loc 1 66 0
  67 0018 3046     		mov	r0, r6
  68 001a 70BD     		pop	{r4, r5, r6, pc}
  69              		.cfi_endproc
  70              	.LFE0:
  71              		.size	_write, .-_write
  72              		.text
  73              	.Letext0: