ARM GAS  C:\Users\dylan\AppData\Local\Temp\ccdafrsi.s 			page 1


   1              		.syntax unified
   2              		.cpu cortex-m3
   3              		.fpu softvfp
   4              		.eabi_attribute 20, 1
   5              		.eabi_attribute 21, 1
   6              		.eabi_attribute 23, 3
   7              		.eabi_attribute 24, 1
   8              		.eabi_attribute 25, 1
   9              		.eabi_attribute 26, 1
  10              		.eabi_attribute 30, 1
  11              		.eabi_attribute 34, 1
  12              		.eabi_attribute 18, 4
  13              		.thumb
  14              		.syntax unified
  15              		.file	"util.c"
  16              		.text
  17              	.Ltext0:
  18              		.cfi_sections	.debug_frame
  19              		.section	.text._write,"ax",%progbits
  20              		.align	2
  21              		.global	_write
  22              		.thumb
  23              		.thumb_func
  24              		.type	_write, %function
  25              	_write:
  26              	.LFB0:
  27              		.file 1 "util.c"
   1:util.c        **** #if defined(__ARMCC_VERSION)
   2:util.c        **** /* For MDK/RVDS compiler revise fputc function for printf functionality */
   3:util.c        **** struct __FILE 
   4:util.c        **** {
   5:util.c        **** int handle;  
   6:util.c        **** };
   7:util.c        **** enum 
   8:util.c        **** {
   9:util.c        **** STDIN_HANDLE,
  10:util.c        **** STDOUT_HANDLE,
  11:util.c        **** STDERR_HANDLE
  12:util.c        **** };
  13:util.c        **** FILE __stdin = {STDIN_HANDLE};
  14:util.c        **** FILE __stdout = {STDOUT_HANDLE};
  15:util.c        **** FILE __stderr = {STDERR_HANDLE};
  16:util.c        **** int fputc(int ch, FILE *file) 
  17:util.c        **** {
  18:util.c        **** int ret = EOF;
  19:util.c        **** switch( file->handle )
  20:util.c        **** {
  21:util.c        **** case STDOUT_HANDLE:
  22:util.c        **** UART_UartPutChar(ch);
  23:util.c        **** ret = ch ;
  24:util.c        **** break ;
  25:util.c        **** case STDERR_HANDLE:
  26:util.c        **** ret = ch ;
  27:util.c        **** break ;
  28:util.c        **** default:
  29:util.c        **** file = file;
  30:util.c        **** break ;
ARM GAS  C:\Users\dylan\AppData\Local\Temp\ccdafrsi.s 			page 2


  31:util.c        **** }
  32:util.c        **** return ret ;
  33:util.c        **** }
  34:util.c        **** #elif defined (__ICCARM__)      /* IAR */
  35:util.c        **** /* For IAR compiler revise __write() function for printf functionality */
  36:util.c        **** size_t __write(int handle, const unsigned char * buffer, size_t size)
  37:util.c        **** {
  38:util.c        **** size_t nChars = 0;
  39:util.c        **** if (buffer == 0)
  40:util.c        **** {
  41:util.c        **** /*
  42:util.c        **** * This means that we should flush internal buffers.  Since we
  43:util.c        **** * don't we just return.  (Remember, "handle" == -1 means that all
  44:util.c        **** * handles should be flushed.)
  45:util.c        **** */
  46:util.c        **** return (0);
  47:util.c        **** }
  48:util.c        **** for (/* Empty */; size != 0; --size)
  49:util.c        **** {
  50:util.c        **** UART_PutChar(*buffer++);
  51:util.c        **** ++nChars;
  52:util.c        **** }
  53:util.c        **** return (nChars);
  54:util.c        **** }
  55:util.c        **** #else  /* (__GNUC__)  GCC */
  56:util.c        **** /* For GCC compiler revise _write() function for printf functionality */
  57:util.c        **** void UART_PutChar();
  58:util.c        **** int _write(int file, char *ptr, int len)
  59:util.c        **** {
  28              		.loc 1 59 0
  29              		.cfi_startproc
  30              		@ args = 0, pretend = 0, frame = 0
  31              		@ frame_needed = 0, uses_anonymous_args = 0
  32              	.LVL0:
  33 0000 70B5     		push	{r4, r5, r6, lr}
  34              		.cfi_def_cfa_offset 16
  35              		.cfi_offset 4, -16
  36              		.cfi_offset 5, -12
  37              		.cfi_offset 6, -8
  38              		.cfi_offset 14, -4
  39 0002 1646     		mov	r6, r2
  40              	.LVL1:
  60:util.c        **** int i;
  61:util.c        **** file = file;
  62:util.c        **** for (i = 0; i < len; i++)
  41              		.loc 1 62 0
  42 0004 0024     		movs	r4, #0
  43 0006 05E0     		b	.L2
  44              	.LVL2:
  45              	.L3:
  63:util.c        **** {
  64:util.c        **** UART_PutChar(*ptr++);
  46              		.loc 1 64 0 discriminator 3
  47 0008 4D1C     		adds	r5, r1, #1
  48              	.LVL3:
  49 000a 0878     		ldrb	r0, [r1]	@ zero_extendqisi2
  50 000c FFF7FEFF 		bl	UART_PutChar
ARM GAS  C:\Users\dylan\AppData\Local\Temp\ccdafrsi.s 			page 3


  51              	.LVL4:
  62:util.c        **** {
  52              		.loc 1 62 0 discriminator 3
  53 0010 0134     		adds	r4, r4, #1
  54              	.LVL5:
  55              		.loc 1 64 0 discriminator 3
  56 0012 2946     		mov	r1, r5
  57              	.LVL6:
  58              	.L2:
  62:util.c        **** {
  59              		.loc 1 62 0 discriminator 1
  60 0014 B442     		cmp	r4, r6
  61 0016 F7DB     		blt	.L3
  65:util.c        **** }
  66:util.c        **** return len;
  67:util.c        **** }
  62              		.loc 1 67 0
  63 0018 3046     		mov	r0, r6
  64 001a 70BD     		pop	{r4, r5, r6, pc}
  65              		.cfi_endproc
  66              	.LFE0:
  67              		.size	_write, .-_write
  68              		.text
  69              	.Letext0: